target datalayout = "e-m:e-p270:32:32-p271:32:32-p272:64:64-i64:64-i128:128-f80:128-n8:16:32:64-S128"
target triple = "x86_64-pc-linux-gnu"

%struct.FSEv06_DTableHeader = type { i16, i16 }
%struct.FSEv06_decode_t = type { i16, i8, i8 }

; Function Attrs: nounwind uwtable
define i64 @FSEv06_buildDTable_raw(ptr noundef %0, i32 noundef %1) #0 {
  %3 = alloca i64, align 8
  %4 = alloca ptr, align 8
  %5 = alloca i32, align 4
  %6 = alloca ptr, align 8
  %7 = alloca ptr, align 8
  %8 = alloca ptr, align 8
  %9 = alloca ptr, align 8
  %10 = alloca i32, align 4
  %11 = alloca i32, align 4
  %12 = alloca i32, align 4
  %13 = alloca i32, align 4
  %14 = alloca i32, align 4
  store ptr %0, ptr %4, align 8, !tbaa !10
  store i32 %1, ptr %5, align 4, !tbaa !15
  call void @llvm.lifetime.start.p0(i64 8, ptr %6) #10
  %15 = load ptr, ptr %4, align 8, !tbaa !10
  store ptr %15, ptr %6, align 8, !tbaa !12
  call void @llvm.lifetime.start.p0(i64 8, ptr %7) #10
  %16 = load ptr, ptr %6, align 8, !tbaa !12
  store ptr %16, ptr %7, align 8, !tbaa !12
  call void @llvm.lifetime.start.p0(i64 8, ptr %8) #10
  %17 = load ptr, ptr %4, align 8, !tbaa !10
  %18 = getelementptr inbounds i32, ptr %17, i64 1
  store ptr %18, ptr %8, align 8, !tbaa !12
  call void @llvm.lifetime.start.p0(i64 8, ptr %9) #10
  %19 = load ptr, ptr %8, align 8, !tbaa !12
  store ptr %19, ptr %9, align 8, !tbaa !12
  call void @llvm.lifetime.start.p0(i64 4, ptr %10) #10
  %20 = load i32, ptr %5, align 4, !tbaa !15
  %21 = shl i32 1, %20
  store i32 %21, ptr %10, align 4, !tbaa !15
  call void @llvm.lifetime.start.p0(i64 4, ptr %11) #10
  %22 = load i32, ptr %10, align 4, !tbaa !15
  %23 = sub i32 %22, 1
  store i32 %23, ptr %11, align 4, !tbaa !15
  call void @llvm.lifetime.start.p0(i64 4, ptr %12) #10
  %24 = load i32, ptr %11, align 4, !tbaa !15
  %25 = add i32 %24, 1
  store i32 %25, ptr %12, align 4, !tbaa !15
  call void @llvm.lifetime.start.p0(i64 4, ptr %13) #10
  %26 = load i32, ptr %5, align 4, !tbaa !15
  %27 = icmp ult i32 %26, 1
  br i1 %27, label %28, label %29

28:                                               ; preds = %2
  store i64 -1, ptr %3, align 8
  store i32 1, ptr %14, align 4
  br label %64

29:                                               ; preds = %2
  %30 = load i32, ptr %5, align 4, !tbaa !15
  %31 = trunc i32 %30 to i16
  %32 = load ptr, ptr %7, align 8, !tbaa !12
  %33 = getelementptr inbounds nuw %struct.FSEv06_DTableHeader, ptr %32, i32 0, i32 0
  store i16 %31, ptr %33, align 2, !tbaa !25
  %34 = load ptr, ptr %7, align 8, !tbaa !12
  %35 = getelementptr inbounds nuw %struct.FSEv06_DTableHeader, ptr %34, i32 0, i32 1
  store i16 1, ptr %35, align 2, !tbaa !27
  store i32 0, ptr %13, align 4, !tbaa !15
  br label %36

36:                                               ; preds = %60, %29
  %37 = load i32, ptr %13, align 4, !tbaa !15
  %38 = load i32, ptr %12, align 4, !tbaa !15
  %39 = icmp ult i32 %37, %38
  br i1 %39, label %40, label %63

40:                                               ; preds = %36
  %41 = load ptr, ptr %9, align 8, !tbaa !12
  %42 = load i32, ptr %13, align 4, !tbaa !15
  %43 = zext i32 %42 to i64
  %44 = getelementptr inbounds nuw %struct.FSEv06_decode_t, ptr %41, i64 %43
  %45 = getelementptr inbounds nuw %struct.FSEv06_decode_t, ptr %44, i32 0, i32 0
  store i16 0, ptr %45, align 2, !tbaa !36
  %46 = load i32, ptr %13, align 4, !tbaa !15
  %47 = trunc i32 %46 to i8
  %48 = load ptr, ptr %9, align 8, !tbaa !12
  %49 = load i32, ptr %13, align 4, !tbaa !15
  %50 = zext i32 %49 to i64
  %51 = getelementptr inbounds nuw %struct.FSEv06_decode_t, ptr %48, i64 %50
  %52 = getelementptr inbounds nuw %struct.FSEv06_decode_t, ptr %51, i32 0, i32 1
  store i8 %47, ptr %52, align 2, !tbaa !28
  %53 = load i32, ptr %5, align 4, !tbaa !15
  %54 = trunc i32 %53 to i8
  %55 = load ptr, ptr %9, align 8, !tbaa !12
  %56 = load i32, ptr %13, align 4, !tbaa !15
  %57 = zext i32 %56 to i64
  %58 = getelementptr inbounds nuw %struct.FSEv06_decode_t, ptr %55, i64 %57
  %59 = getelementptr inbounds nuw %struct.FSEv06_decode_t, ptr %58, i32 0, i32 2
  store i8 %54, ptr %59, align 1, !tbaa !35
  br label %60

60:                                               ; preds = %40
  %61 = load i32, ptr %13, align 4, !tbaa !15
  %62 = add i32 %61, 1
  store i32 %62, ptr %13, align 4, !tbaa !15
  br label %36, !llvm.loop !38

63:                                               ; preds = %36
  store i64 0, ptr %3, align 8
  store i32 1, ptr %14, align 4
  br label %64

64:                                               ; preds = %63, %28
  call void @llvm.lifetime.end.p0(i64 4, ptr %13) #10
  call void @llvm.lifetime.end.p0(i64 4, ptr %12) #10
  call void @llvm.lifetime.end.p0(i64 4, ptr %11) #10
  call void @llvm.lifetime.end.p0(i64 4, ptr %10) #10
  call void @llvm.lifetime.end.p0(i64 8, ptr %9) #10
  call void @llvm.lifetime.end.p0(i64 8, ptr %8) #10
  call void @llvm.lifetime.end.p0(i64 8, ptr %7) #10
  call void @llvm.lifetime.end.p0(i64 8, ptr %6) #10
  %65 = load i64, ptr %3, align 8
  ret i64 %65
}