; Function Attrs: nofree norecurse nosync nounwind memory(argmem: write) uwtable
define range(i64 -1, 1) i64 @FSEv06_buildDTable_raw(ptr noundef writeonly captures(none) %0, i32 noundef %1) local_unnamed_addr #10 {
  %3 = getelementptr inbounds nuw i8, ptr %0, i64 4
  %4 = icmp eq i32 %1, 0
  br i1 %4, label %.loopexit, label %5

5:                                                ; preds = %2
  %6 = trunc i32 %1 to i16
  store i16 %6, ptr %0, align 2, !tbaa !23
  %7 = getelementptr inbounds nuw i8, ptr %0, i64 2
  store i16 1, ptr %7, align 2, !tbaa !25
  %8 = trunc i32 %1 to i8
  br label %9

9:                                                ; preds = %5, %9
  %.024 = phi i32 [ 0, %5 ], [ %15, %9 ]
  %10 = zext i32 %.024 to i64
  %11 = getelementptr inbounds nuw %struct.FSEv06_decode_t, ptr %3, i64 %10
  store i16 0, ptr %11, align 2, !tbaa !21
  %12 = trunc i32 %.024 to i8
  %13 = getelementptr inbounds nuw i8, ptr %11, i64 2
  store i8 %12, ptr %13, align 2, !tbaa !14
  %14 = getelementptr inbounds nuw i8, ptr %11, i64 3
  store i8 %8, ptr %14, align 1, !tbaa !20
  %15 = add i32 %.024, 1
  %.0.highbits = lshr i32 %15, %1
  %16 = icmp eq i32 %.0.highbits, 0
  br i1 %16, label %9, label %.loopexit, !llvm.loop !26

.loopexit:                                        ; preds = %9, %2
  %.022 = phi i64 [ -1, %2 ], [ 0, %9 ]
  ret i64 %.022
}